(dp0
(cnumpy.core.multiarray
scalar
p1
(cnumpy
dtype
p2
(S'f8'
p3
I0
I1
tp4
Rp5
(I3
S'<'
p6
NNNI-1
I-1
I0
tp7
bS'\xecQ\xb8\x1e\x85\xeb\xb1?'
p8
tp9
Rp10
g1
(g5
S'\xb7.\xe6\x83UL\xf4?'
p11
tp12
Rp13
tp14
(I37
I10
tp15
s(g1
(g5
S'{\x14\xaeG\xe1z\x84?'
p16
tp17
Rp18
g1
(g5
S'-\x8ciP\n\x85\xf6?'
p19
tp20
Rp21
tp22
(I3
I12
tp23
s(g18
g1
(g5
S'\xc5r\x8e\xc6>\xb8\xf9?'
p24
tp25
Rp26
tp27
(I3
I18
tp28
s(g18
g1
(g5
S'G\xcda\x91I\xa4\xea?'
p29
tp30
Rp31
tp32
(I3
I3
tp33
s(g10
g1
(g5
S'-\x8ciP\n\x85\xf6?'
p34
tp35
Rp36
tp37
(I37
I12
tp38
s(g1
(g5
S'\xb8\x1e\x85\xebQ\xb8\xae?'
p39
tp40
Rp41
g1
(g5
S'\xa9\xcc\xedrUX\x00@'
p42
tp43
Rp44
tp45
(I28
I36
tp46
s(g1
(g5
S'\x9a\x99\x99\x99\x99\x99\xa9?'
p47
tp48
Rp49
g1
(g5
S'-\x8ciP\n\x85\xf6?'
p50
tp51
Rp52
tp53
(I21
I12
tp54
s(g1
(g5
S'\x9a\x99\x99\x99\x99\x99\xb9?'
p55
tp56
Rp57
g1
(g5
S'{4\x89u\\\xe1\xfc?'
p58
tp59
Rp60
tp61
(I71
I26
tp62
s(g1
(g5
S'{\x14\xaeG\xe1z\xa4?'
p63
tp64
Rp65
g1
(g5
S'-\x8ciP\n\x85\xf6?'
p66
tp67
Rp68
tp69
(I15
I12
tp70
s(g65
g1
(g5
S'\xa9\xcc\xedrUX\x00@'
p71
tp72
Rp73
tp74
(I15
I36
tp75
s(g1
(g5
S'\xb8\x1e\x85\xebQ\xb8\x9e?'
p76
tp77
Rp78
g1
(g5
S'-\x8ciP\n\x85\xf6?'
p79
tp80
Rp81
tp82
(I9
I12
tp83
s(g1
(g5
S'{\x14\xaeG\xe1z\x94?'
p84
tp85
Rp86
g1
(g5
S'\xc5r\x8e\xc6>\xb8\xf9?'
p87
tp88
Rp89
tp90
(I5
I18
tp91
s(g41
g1
(g5
S'G\xcda\x91I\xa4\xea?'
p92
tp93
Rp94
tp95
(I28
I3
tp96
s(g65
g1
(g5
S'6\xbb\x83_|;\xde?'
p97
tp98
Rp99
tp100
(I15
I2
tp101
s(g1
(g5
S'\n\xd7\xa3p=\n\xb7?'
p102
tp103
Rp104
g1
(g5
S'G\xcda\x91I\xa4\xea?'
p105
tp106
Rp107
tp108
(I58
I3
tp109
s(g1
(g5
S'{\x14\xaeG\xe1z\xb4?'
p110
tp111
Rp112
g1
(g5
S'\x12\xac\xe4\xa4\xce\xf8\xfb?'
p113
tp114
Rp115
tp116
(I47
I24
tp117
s(g104
g1
(g5
S'}\t\xe0\xbe\xdb^\xf1?'
p118
tp119
Rp120
tp121
(I58
I6
tp122
s(g1
(g5
S'\x00\x00\x00\x00\x00\x00\x00\x00'
p123
tp124
Rp125
g1
(g5
S'-\x8ciP\n\x85\xf6?'
p126
tp127
Rp128
tp129
(I1
I12
tp130
s(g41
g1
(g5
S'}\t\xe0\xbe\xdb^\xf1?'
p131
tp132
Rp133
tp134
(I28
I6
tp135
s(g125
g1
(g5
S'}\t\xe0\xbe\xdb^\xf1?'
p136
tp137
Rp138
tp139
(I1
I6
tp140
s(g112
g1
(g5
S'\xf0\xbc\x11\x1e6\x18\x00@'
p141
tp142
Rp143
tp144
(I47
I34
tp145
s(g112
g1
(g5
S'\xc5r\x8e\xc6>\xb8\xf9?'
p146
tp147
Rp148
tp149
(I47
I18
tp150
s(g41
g1
(g5
S'6\xbb\x83_|;\xde?'
p151
tp152
Rp153
tp154
(I28
I2
tp155
s(g41
g1
(g5
S'\xc5r\x8e\xc6>\xb8\xf9?'
p156
tp157
Rp158
tp159
(I28
I18
tp160
s(g65
g1
(g5
S'R*X\x81-\xaf\xfd?'
p161
tp162
Rp163
tp164
(I15
I28
tp165
s(g1
(g5
S'{\x14\xaeG\xe1z\x84?'
p166
tp167
Rp168
g1
(g5
S'\x12\xac\xe4\xa4\xce\xf8\xfb?'
p169
tp170
Rp171
tp172
(I3
I23
tp173
s(g86
g1
(g5
S' \xf1\x89\ns\xee\xfa?'
p174
tp175
Rp176
tp177
(I5
I20
tp178
s(g112
g1
(g5
S'\xa6k""i\xa5\xff?'
p179
tp180
Rp181
tp182
(I47
I32
tp183
s(g78
g1
(g5
S'\xa9\xcc\xedrUX\x00@'
p184
tp185
Rp186
tp187
(I9
I36
tp188
s(g49
g1
(g5
S'\xa6k""i\xa5\xff?'
p189
tp190
Rp191
tp192
(I21
I32
tp193
s(g78
g1
(g5
S'R*X\x81-\xaf\xfd?'
p194
tp195
Rp196
tp197
(I9
I28
tp198
s(g65
g1
(g5
S'{4\x89u\\\xe1\xfc?'
p199
tp200
Rp201
tp202
(I15
I26
tp203
s(g49
g1
(g5
S'{4\x89u\\\xe1\xfc?'
p204
tp205
Rp206
tp207
(I21
I26
tp208
s(g57
g1
(g5
S'\x12\xac\xe4\xa4\xce\xf8\xfb?'
p209
tp210
Rp211
tp212
(I71
I24
tp213
s(g57
g1
(g5
S'\xc5r\x8e\xc6>\xb8\xf9?'
p214
tp215
Rp216
tp217
(I71
I18
tp218
s(g168
g1
(g5
S'I\xef)W\xd3\r\xff?'
p219
tp220
Rp221
tp222
(I3
I31
tp223
s(g10
g1
(g5
S'I\xef)W\xd3\r\xff?'
p224
tp225
Rp226
tp227
(I37
I32
tp228
s(g41
g1
(g5
S'-\x8ciP\n\x85\xf6?'
p229
tp230
Rp231
tp232
(I28
I12
tp233
s(g49
g1
(g5
S'\xa9\xcc\xedrUX\x00@'
p234
tp235
Rp236
tp237
(I21
I36
tp238
s(g10
g1
(g5
S'6\xbb\x83_|;\xde?'
p239
tp240
Rp241
tp242
(I37
I2
tp243
s(g125
g1
(g5
S' \xf1\x89\ns\xee\xfa?'
p244
tp245
Rp246
tp247
(I1
I20
tp248
s(g10
g1
(g5
S' \xf1\x89\ns\xee\xfa?'
p249
tp250
Rp251
tp252
(I37
I20
tp253
s(g1
(g5
S'\x00\x00\x00\x00\x00\x00\x00\x00'
p254
tp255
Rp256
g1
(g5
S'6\xbb\x83_|;\xde?'
p257
tp258
Rp259
tp260
(I1
I2
tp261
s(g86
g1
(g5
S'R*X\x81-\xaf\xfd?'
p262
tp263
Rp264
tp265
(I5
I28
tp266
s(g18
g1
(g5
S'}\t\xe0\xbe\xdb^\xf1?'
p267
tp268
Rp269
tp270
(I3
I6
tp271
s(g78
g1
(g5
S' \xf1\x89\ns\xee\xfa?'
p272
tp273
Rp274
tp275
(I9
I20
tp276
s(g86
g1
(g5
S'6\xbb\x83_|;\xde?'
p277
tp278
Rp279
tp280
(I5
I2
tp281
s(g41
g1
(g5
S'erv\xaccg\xfe?'
p282
tp283
Rp284
tp285
(I28
I30
tp286
s(g10
g1
(g5
S'G\xcda\x91I\xa4\xea?'
p287
tp288
Rp289
tp290
(I37
I3
tp291
s(g104
g1
(g5
S'{4\x89u\\\xe1\xfc?'
p292
tp293
Rp294
tp295
(I58
I26
tp296
s(g112
g1
(g5
S'}\t\xe0\xbe\xdb^\xf1?'
p297
tp298
Rp299
tp300
(I47
I6
tp301
s(g49
g1
(g5
S'\xb7.\xe6\x83UL\xf4?'
p302
tp303
Rp304
tp305
(I21
I10
tp306
s(g78
g1
(g5
S'\xa6k""i\xa5\xff?'
p307
tp308
Rp309
tp310
(I9
I32
tp311
s(g78
g1
(g5
S'I\xef)W\xd3\r\xff?'
p312
tp313
Rp314
tp315
(I9
I32
tp316
s(g104
g1
(g5
S'\xc5r\x8e\xc6>\xb8\xf9?'
p317
tp318
Rp319
tp320
(I58
I18
tp321
s(g57
g1
(g5
S'}\t\xe0\xbe\xdb^\xf1?'
p322
tp323
Rp324
tp325
(I71
I6
tp326
s(g168
g1
(g5
S'{4\x89u\\\xe1\xfc?'
p327
tp328
Rp329
tp330
(I3
I25
tp331
s(g57
g1
(g5
S'\xa6k""i\xa5\xff?'
p332
tp333
Rp334
tp335
(I71
I34
tp336
s(g78
g1
(g5
S'}\t\xe0\xbe\xdb^\xf1?'
p337
tp338
Rp339
tp340
(I9
I6
tp341
s(g104
g1
(g5
S'\x00\x00\x00\x00\x00\x00\x00\x00'
p342
tp343
Rp344
tp345
(I58
I1
tp346
s(g65
g1
(g5
S'\x00\x00\x00\x00\x00\x00\x00\x00'
p347
tp348
Rp349
tp350
(I15
I1
tp351
s(g10
g1
(g5
S'erv\xaccg\xfe?'
p352
tp353
Rp354
tp355
(I37
I30
tp356
s(g104
g1
(g5
S'\xb7.\xe6\x83UL\xf4?'
p357
tp358
Rp359
tp360
(I58
I10
tp361
s(g112
g1
(g5
S'R*X\x81-\xaf\xfd?'
p362
tp363
Rp364
tp365
(I47
I28
tp366
s(g49
g1
(g5
S'\xc5r\x8e\xc6>\xb8\xf9?'
p367
tp368
Rp369
tp370
(I21
I18
tp371
s(g112
g1
(g5
S'\x00\x00\x00\x00\x00\x00\x00\x00'
p372
tp373
Rp374
tp375
(I47
I1
tp376
s(g49
g1
(g5
S'R*X\x81-\xaf\xfd?'
p377
tp378
Rp379
tp380
(I21
I28
tp381
s(g65
g1
(g5
S'}\t\xe0\xbe\xdb^\xf1?'
p382
tp383
Rp384
tp385
(I15
I6
tp386
s(g10
g1
(g5
S'\xf0\xbc\x11\x1e6\x18\x00@'
p387
tp388
Rp389
tp390
(I37
I34
tp391
s(g86
g1
(g5
S'G\xcda\x91I\xa4\xea?'
p392
tp393
Rp394
tp395
(I5
I3
tp396
s(g112
g1
(g5
S'G\xcda\x91I\xa4\xea?'
p397
tp398
Rp399
tp400
(I47
I3
tp401
s(g125
g1
(g5
S'\x9b[l\xabaG\xf8?'
p402
tp403
Rp404
tp405
(I1
I15
tp406
s(g78
g1
(g5
S'\xf0\xbc\x11\x1e6\x18\x00@'
p407
tp408
Rp409
tp410
(I9
I34
tp411
s(g41
g1
(g5
S'\xf0\xbc\x11\x1e6\x18\x00@'
p412
tp413
Rp414
tp415
(I28
I34
tp416
s(g104
g1
(g5
S'erv\xaccg\xfe?'
p417
tp418
Rp419
tp420
(I58
I30
tp421
s(g57
g1
(g5
S'-\x8ciP\n\x85\xf6?'
p422
tp423
Rp424
tp425
(I71
I12
tp426
s(g125
g1
(g5
S'R*X\x81-\xaf\xfd?'
p427
tp428
Rp429
tp430
(I1
I27
tp431
s(g49
g1
(g5
S'}\t\xe0\xbe\xdb^\xf1?'
p432
tp433
Rp434
tp435
(I21
I6
tp436
s(g104
g1
(g5
S'R*X\x81-\xaf\xfd?'
p437
tp438
Rp439
tp440
(I58
I28
tp441
s(g86
g1
(g5
S'\x00\x00\x00\x00\x00\x00\x00\x00'
p442
tp443
Rp444
tp445
(I5
I1
tp446
s(g86
g1
(g5
S'-\x8ciP\n\x85\xf6?'
p447
tp448
Rp449
tp450
(I5
I12
tp451
s(g57
g1
(g5
S'6\xbb\x83_|;\xde?'
p452
tp453
Rp454
tp455
(I71
I2
tp456
s(g125
g1
(g5
S'\xc5r\x8e\xc6>\xb8\xf9?'
p457
tp458
Rp459
tp460
(I1
I18
tp461
s(g78
g1
(g5
S'\x12\xac\xe4\xa4\xce\xf8\xfb?'
p462
tp463
Rp464
tp465
(I9
I24
tp466
s(g57
g1
(g5
S'I\xef)W\xd3\r\xff?'
p467
tp468
Rp469
tp470
(I71
I32
tp471
s(g104
g1
(g5
S'\xa9\xcc\xedrUX\x00@'
p472
tp473
Rp474
tp475
(I58
I36
tp476
s(g168
g1
(g5
S'erv\xaccg\xfe?'
p477
tp478
Rp479
tp480
(I3
I29
tp481
s(g104
g1
(g5
S' \xf1\x89\ns\xee\xfa?'
p482
tp483
Rp484
tp485
(I58
I20
tp486
s(g112
g1
(g5
S'-\x8ciP\n\x85\xf6?'
p487
tp488
Rp489
tp490
(I47
I12
tp491
s(g65
g1
(g5
S'I\xef)W\xd3\r\xff?'
p492
tp493
Rp494
tp495
(I15
I32
tp496
s(g1
(g5
S'\x00\x00\x00\x00\x00\x00\x00\x00'
p497
tp498
Rp499
g1
(g5
S'\xa9\xcc\xedrUX\x00@'
p500
tp501
Rp502
tp503
(I1
I35
tp504
s(g57
g1
(g5
S'G\xcda\x91I\xa4\xea?'
p505
tp506
Rp507
tp508
(I71
I3
tp509
s(g49
g1
(g5
S'\x9b[l\xabaG\xf8?'
p510
tp511
Rp512
tp513
(I21
I16
tp514
s(g10
g1
(g5
S'\x00\x00\x00\x00\x00\x00\x00\x00'
p515
tp516
Rp517
tp518
(I37
I1
tp519
s(g49
g1
(g5
S'\x00\x00\x00\x00\x00\x00\x00\x00'
p520
tp521
Rp522
tp523
(I21
I1
tp524
s(g104
g1
(g5
S'\x9b[l\xabaG\xf8?'
p525
tp526
Rp527
tp528
(I58
I16
tp529
s(g86
g1
(g5
S'\x9b[l\xabaG\xf8?'
p530
tp531
Rp532
tp533
(I5
I16
tp534
s(g78
g1
(g5
S'{4\x89u\\\xe1\xfc?'
p535
tp536
Rp537
tp538
(I9
I26
tp539
s(g86
g1
(g5
S'erv\xaccg\xfe?'
p540
tp541
Rp542
tp543
(I5
I30
tp544
s(g57
g1
(g5
S' \xf1\x89\ns\xee\xfa?'
p545
tp546
Rp547
tp548
(I71
I20
tp549
s(g112
g1
(g5
S'I\xef)W\xd3\r\xff?'
p550
tp551
Rp552
tp553
(I47
I32
tp554
s(g78
g1
(g5
S'6\xbb\x83_|;\xde?'
p555
tp556
Rp557
tp558
(I9
I2
tp559
s(g10
g1
(g5
S'{4\x89u\\\xe1\xfc?'
p560
tp561
Rp562
tp563
(I37
I26
tp564
s(g18
g1
(g5
S'\xb7.\xe6\x83UL\xf4?'
p565
tp566
Rp567
tp568
(I3
I9
tp569
s(g125
g1
(g5
S'erv\xaccg\xfe?'
p570
tp571
Rp572
tp573
(I1
I29
tp574
s(g112
g1
(g5
S' \xf1\x89\ns\xee\xfa?'
p575
tp576
Rp577
tp578
(I47
I20
tp579
s(g41
g1
(g5
S' \xf1\x89\ns\xee\xfa?'
p580
tp581
Rp582
tp583
(I28
I20
tp584
s(g86
g1
(g5
S'\xa6k""i\xa5\xff?'
p585
tp586
Rp587
tp588
(I5
I32
tp589
s(g41
g1
(g5
S'\xb7.\xe6\x83UL\xf4?'
p590
tp591
Rp592
tp593
(I28
I10
tp594
s(g112
g1
(g5
S'6\xbb\x83_|;\xde?'
p595
tp596
Rp597
tp598
(I47
I2
tp599
s(g168
g1
(g5
S'\xa9\xcc\xedrUX\x00@'
p600
tp601
Rp602
tp603
(I3
I35
tp604
s(g18
g1
(g5
S'\x00\x00\x00\x00\x00\x00\x00\x00'
p605
tp606
Rp607
tp608
(I3
I1
tp609
s(g125
g1
(g5
S'\xb7.\xe6\x83UL\xf4?'
p610
tp611
Rp612
tp613
(I1
I9
tp614
s(g49
g1
(g5
S'I\xef)W\xd3\r\xff?'
p615
tp616
Rp617
tp618
(I21
I32
tp619
s(g49
g1
(g5
S' \xf1\x89\ns\xee\xfa?'
p620
tp621
Rp622
tp623
(I21
I20
tp624
s(g168
g1
(g5
S'\xf0\xbc\x11\x1e6\x18\x00@'
p625
tp626
Rp627
tp628
(I3
I34
tp629
s(g86
g1
(g5
S'\xa9\xcc\xedrUX\x00@'
p630
tp631
Rp632
tp633
(I5
I36
tp634
s(g65
g1
(g5
S' \xf1\x89\ns\xee\xfa?'
p635
tp636
Rp637
tp638
(I15
I20
tp639
s(g10
g1
(g5
S'\xa9\xcc\xedrUX\x00@'
p640
tp641
Rp642
tp643
(I37
I36
tp644
s(g78
g1
(g5
S'\x00\x00\x00\x00\x00\x00\x00\x00'
p645
tp646
Rp647
tp648
(I9
I1
tp649
s(g104
g1
(g5
S'\xf0\xbc\x11\x1e6\x18\x00@'
p650
tp651
Rp652
tp653
(I58
I34
tp654
s(g125
g1
(g5
S'I\xef)W\xd3\r\xff?'
p655
tp656
Rp657
tp658
(I1
I31
tp659
s(g41
g1
(g5
S'\x00\x00\x00\x00\x00\x00\x00\x00'
p660
tp661
Rp662
tp663
(I28
I1
tp664
s(g104
g1
(g5
S'6\xbb\x83_|;\xde?'
p665
tp666
Rp667
tp668
(I58
I2
tp669
s(g168
g1
(g5
S'R*X\x81-\xaf\xfd?'
p670
tp671
Rp672
tp673
(I3
I27
tp674
s(g104
g1
(g5
S'\xa6k""i\xa5\xff?'
p675
tp676
Rp677
tp678
(I58
I32
tp679
s(g78
g1
(g5
S'\x9b[l\xabaG\xf8?'
p680
tp681
Rp682
tp683
(I9
I16
tp684
s(g65
g1
(g5
S'\xa6k""i\xa5\xff?'
p685
tp686
Rp687
tp688
(I15
I32
tp689
s(g86
g1
(g5
S'\x12\xac\xe4\xa4\xce\xf8\xfb?'
p690
tp691
Rp692
tp693
(I5
I24
tp694
s(g10
g1
(g5
S'R*X\x81-\xaf\xfd?'
p695
tp696
Rp697
tp698
(I37
I28
tp699
s(g112
g1
(g5
S'\xb7.\xe6\x83UL\xf4?'
p700
tp701
Rp702
tp703
(I47
I10
tp704
s(g49
g1
(g5
S'\xf0\xbc\x11\x1e6\x18\x00@'
p705
tp706
Rp707
tp708
(I21
I34
tp709
s(g86
g1
(g5
S'\xb7.\xe6\x83UL\xf4?'
p710
tp711
Rp712
tp713
(I5
I10
tp714
s(g10
g1
(g5
S'\x9b[l\xabaG\xf8?'
p715
tp716
Rp717
tp718
(I37
I16
tp719
s(g125
g1
(g5
S'\xa6k""i\xa5\xff?'
p720
tp721
Rp722
tp723
(I1
I32
tp724
s(g112
g1
(g5
S'\xa9\xcc\xedrUX\x00@'
p725
tp726
Rp727
tp728
(I47
I36
tp729
s(g104
g1
(g5
S'\x12\xac\xe4\xa4\xce\xf8\xfb?'
p730
tp731
Rp732
tp733
(I58
I24
tp734
s(g104
g1
(g5
S'I\xef)W\xd3\r\xff?'
p735
tp736
Rp737
tp738
(I58
I32
tp739
s(g10
g1
(g5
S'\xa6k""i\xa5\xff?'
p740
tp741
Rp742
tp743
(I37
I32
tp744
s(g1
(g5
S'\x9a\x99\x99\x99\x99\x99\xb9?'
p745
tp746
Rp747
g1
(g5
S'\xa9\xcc\xedrUX\x00@'
p748
tp749
Rp750
tp751
(I71
I37
tp752
s(g41
g1
(g5
S'\x12\xac\xe4\xa4\xce\xf8\xfb?'
p753
tp754
Rp755
tp756
(I28
I24
tp757
s(g112
g1
(g5
S'erv\xaccg\xfe?'
p758
tp759
Rp760
tp761
(I47
I30
tp762
s(g112
g1
(g5
S'\x9b[l\xabaG\xf8?'
p763
tp764
Rp765
tp766
(I47
I16
tp767
s(g65
g1
(g5
S'G\xcda\x91I\xa4\xea?'
p768
tp769
Rp770
tp771
(I15
I3
tp772
s(g65
g1
(g5
S'\x12\xac\xe4\xa4\xce\xf8\xfb?'
p773
tp774
Rp775
tp776
(I15
I24
tp777
s(g86
g1
(g5
S'}\t\xe0\xbe\xdb^\xf1?'
p778
tp779
Rp780
tp781
(I5
I6
tp782
s(g49
g1
(g5
S'G\xcda\x91I\xa4\xea?'
p783
tp784
Rp785
tp786
(I21
I3
tp787
s(g125
g1
(g5
S'{4\x89u\\\xe1\xfc?'
p788
tp789
Rp790
tp791
(I1
I25
tp792
s(g78
g1
(g5
S'G\xcda\x91I\xa4\xea?'
p793
tp794
Rp795
tp796
(I9
I3
tp797
s(g18
g1
(g5
S'6\xbb\x83_|;\xde?'
p798
tp799
Rp800
tp801
(I3
I2
tp802
s(g168
g1
(g5
S'\xa6k""i\xa5\xff?'
p803
tp804
Rp805
tp806
(I3
I32
tp807
s(g104
g1
(g5
S'-\x8ciP\n\x85\xf6?'
p808
tp809
Rp810
tp811
(I58
I12
tp812
s(g49
g1
(g5
S'6\xbb\x83_|;\xde?'
p813
tp814
Rp815
tp816
(I21
I2
tp817
s(g18
g1
(g5
S'\x9b[l\xabaG\xf8?'
p818
tp819
Rp820
tp821
(I3
I15
tp822
s(g256
g1
(g5
S'G\xcda\x91I\xa4\xea?'
p823
tp824
Rp825
tp826
(I1
I3
tp827
s(g49
g1
(g5
S'erv\xaccg\xfe?'
p828
tp829
Rp830
tp831
(I21
I30
tp832
s(g57
g1
(g5
S'erv\xaccg\xfe?'
p833
tp834
Rp835
tp836
(I71
I30
tp837
s(g57
g1
(g5
S'R*X\x81-\xaf\xfd?'
p838
tp839
Rp840
tp841
(I71
I28
tp842
s(g10
g1
(g5
S'}\t\xe0\xbe\xdb^\xf1?'
p843
tp844
Rp845
tp846
(I37
I6
tp847
s(g41
g1
(g5
S'R*X\x81-\xaf\xfd?'
p848
tp849
Rp850
tp851
(I28
I28
tp852
s(g86
g1
(g5
S'I\xef)W\xd3\r\xff?'
p853
tp854
Rp855
tp856
(I5
I32
tp857
s(g57
g1
(g5
S'\xb7.\xe6\x83UL\xf4?'
p858
tp859
Rp860
tp861
(I71
I10
tp862
s(g747
g1
(g5
S'\x00\x00\x00\x00\x00\x00\x00\x00'
p863
tp864
Rp865
tp866
(I71
I1
tp867
s(g41
g1
(g5
S'\xa6k""i\xa5\xff?'
p868
tp869
Rp870
tp871
(I28
I32
tp872
s(g78
g1
(g5
S'\xc5r\x8e\xc6>\xb8\xf9?'
p873
tp874
Rp875
tp876
(I9
I18
tp877
s(g18
g1
(g5
S' \xf1\x89\ns\xee\xfa?'
p878
tp879
Rp880
tp881
(I3
I20
tp882
s(g112
g1
(g5
S'{4\x89u\\\xe1\xfc?'
p883
tp884
Rp885
tp886
(I47
I26
tp887
s(g78
g1
(g5
S'erv\xaccg\xfe?'
p888
tp889
Rp890
tp891
(I9
I30
tp892
s(g499
g1
(g5
S'\x00\x00\x00\x00\x00\x00\x00\x00'
p893
tp894
Rp895
tp896
(I1
I1
tp897
s(g65
g1
(g5
S'\xc5r\x8e\xc6>\xb8\xf9?'
p898
tp899
Rp900
tp901
(I15
I18
tp902
s(g57
g1
(g5
S'\x9b[l\xabaG\xf8?'
p903
tp904
Rp905
tp906
(I71
I16
tp907
s(g41
g1
(g5
S'I\xef)W\xd3\r\xff?'
p908
tp909
Rp910
tp911
(I28
I32
tp912
s(g125
g1
(g5
S'\xf0\xbc\x11\x1e6\x18\x00@'
p913
tp914
Rp915
tp916
(I1
I34
tp917
s(g49
g1
(g5
S'\x12\xac\xe4\xa4\xce\xf8\xfb?'
p918
tp919
Rp920
tp921
(I21
I24
tp922
s(g65
g1
(g5
S'erv\xaccg\xfe?'
p923
tp924
Rp925
tp926
(I15
I30
tp927
s(g41
g1
(g5
S'\x9b[l\xabaG\xf8?'
p928
tp929
Rp930
tp931
(I28
I16
tp932
s(g86
g1
(g5
S'{4\x89u\\\xe1\xfc?'
p933
tp934
Rp935
tp936
(I5
I26
tp937
s(g10
g1
(g5
S'\x12\xac\xe4\xa4\xce\xf8\xfb?'
p938
tp939
Rp940
tp941
(I37
I24
tp942
s(g86
g1
(g5
S'\xf0\xbc\x11\x1e6\x18\x00@'
p943
tp944
Rp945
tp946
(I5
I34
tp947
s(g65
g1
(g5
S'\xb7.\xe6\x83UL\xf4?'
p948
tp949
Rp950
tp951
(I15
I10
tp952
s(g125
g1
(g5
S'\x12\xac\xe4\xa4\xce\xf8\xfb?'
p953
tp954
Rp955
tp956
(I1
I23
tp957
s(g10
g1
(g5
S'\xc5r\x8e\xc6>\xb8\xf9?'
p958
tp959
Rp960
tp961
(I37
I18
tp962
s(g78
g1
(g5
S'\xb7.\xe6\x83UL\xf4?'
p963
tp964
Rp965
tp966
(I9
I10
tp967
s(g65
g1
(g5
S'\x9b[l\xabaG\xf8?'
p968
tp969
Rp970
tp971
(I15
I16
tp972
s(g65
g1
(g5
S'\xf0\xbc\x11\x1e6\x18\x00@'
p973
tp974
Rp975
tp976
(I15
I34
tp977
s(g41
g1
(g5
S'{4\x89u\\\xe1\xfc?'
p978
tp979
Rp980
tp981
(I28
I26
tp982
s(g57
g1
(g5
S'\xf0\xbc\x11\x1e6\x18\x00@'
p983
tp984
Rp985
tp986
(I71
I35
tp987
s.